; Function Attrs: mustprogress uwtable
define void @_ZN7rocksdb26CompactForTieringCollector10AddUserKeyERKNS_5SliceES3_NS_9EntryTypeEmm(ptr dead_on_unwind noalias writable writeonly sret(%"class.rocksdb::Status") align 8 captures(none) initializes((0, 6), (8, 16)) %0, ptr noundef nonnull align 8 captures(none) dereferenceable(43) %1, ptr nonnull readnone align 8 captures(none) %2, ptr noundef nonnull align 8 dereferenceable(16) %3, i32 noundef %4, i64 noundef %5, i64 %6) unnamed_addr #4 align 2 personality ptr @__gxx_personality_v0 {
  %8 = icmp eq i32 %4, 8
  br i1 %8, label %9, label %11

9:                                                ; preds = %7
  %10 = tail call noundef i64 @_ZN7rocksdb24ParsePackedValueForSeqnoERKNS_5SliceE(ptr noundef nonnull align 8 dereferenceable(16) %3)
  br label %11

11:                                               ; preds = %9, %7
  %.0 = phi i64 [ %10, %9 ], [ %5, %7 ]
  %12 = getelementptr inbounds nuw i8, ptr %1, i64 8
  %13 = load i64, ptr %12, align 8, !tbaa !7
  %14 = icmp ult i64 %.0, %13
  br i1 %14, label %15, label %19

15:                                               ; preds = %11
  %16 = getelementptr inbounds nuw i8, ptr %1, i64 24
  %17 = load i64, ptr %16, align 8, !tbaa !16
  %18 = add i64 %17, 1
  store i64 %18, ptr %16, align 8, !tbaa !16
  br label %19

19:                                               ; preds = %15, %11
  %20 = getelementptr inbounds nuw i8, ptr %1, i64 32
  %21 = load i64, ptr %20, align 8, !tbaa !17
  %22 = add i64 %21, 1
  store i64 %22, ptr %20, align 8, !tbaa !17
  %23 = getelementptr inbounds nuw i8, ptr %0, i64 8
  store ptr null, ptr %23, align 8, !tbaa !18, !alias.scope !22
  tail call void @llvm.memset.p0.i64(ptr noundef nonnull align 8 dereferenceable(16) %0, i8 0, i64 6, i1 false), !alias.scope !22
  ret void
}